target datalayout = "e-m:e-p270:32:32-p271:32:32-p272:64:64-i64:64-i128:128-f80:128-n8:16:32:64-S128"
target triple = "x86_64-pc-linux-gnu"

%struct.Gia_Man_t_ = type { ptr, ptr, i32, i32, i32, i32, ptr, ptr, i32, i32, i32, ptr, ptr, %struct.Vec_Int_t_, %struct.Vec_Int_t_, i32, i32, i32, %struct.Vec_Int_t_, ptr, ptr, ptr, i32, i32, i32, i32, ptr, ptr, ptr, ptr, ptr, i32, i32, ptr, i32, ptr, ptr, ptr, ptr, ptr, ptr, ptr, ptr, ptr, ptr, ptr, ptr, ptr, ptr, ptr, ptr, ptr, ptr, %struct.Vec_Int_t_, %struct.Vec_Int_t_, ptr, ptr, ptr, ptr, ptr, ptr, ptr, ptr, ptr, ptr, ptr, ptr, ptr, ptr, ptr, ptr, ptr, ptr, ptr, ptr, ptr, i32, float, float, ptr, ptr, i32, ptr, ptr, ptr, ptr, ptr, ptr, ptr, ptr, ptr, ptr, ptr, ptr, ptr, ptr, ptr, i64, i64, ptr, ptr, i32, i32, i32, i32, i32, i32, i32, i32, i32, i32, i32, i32, ptr, ptr, ptr, ptr, ptr, ptr, ptr, ptr, i32, i32, i32, ptr, i32, i32, ptr, ptr, ptr, ptr, ptr, ptr, i32, i32, ptr, %struct.Vec_Int_t_, %struct.Vec_Int_t_, %struct.Vec_Int_t_, ptr, ptr, ptr }
%struct.Vec_Int_t_ = type { i32, i32, ptr }
%struct.Gia_Obj_t_ = type <{ i64, i32 }>

; Function Attrs: nounwind uwtable
define internal ptr @Gia_ManObj(ptr noundef %0, i32 noundef %1) #0 {
  %3 = alloca ptr, align 8
  %4 = alloca i32, align 4
  store ptr %0, ptr %3, align 8
  store i32 %1, ptr %4, align 4
  %5 = load ptr, ptr %3, align 8
  %6 = getelementptr inbounds %struct.Gia_Man_t_, ptr %5, i32 0, i32 6
  %7 = load ptr, ptr %6, align 8
  %8 = load i32, ptr %4, align 4
  %9 = sext i32 %8 to i64
  %10 = getelementptr inbounds %struct.Gia_Obj_t_, ptr %7, i64 %9
  ret ptr %10
}

; Function Attrs: nounwind uwtable
define internal i32 @Vec_IntEntry(ptr noundef %0, i32 noundef %1) #0 {
  %3 = alloca ptr, align 8
  %4 = alloca i32, align 4
  store ptr %0, ptr %3, align 8
  store i32 %1, ptr %4, align 4
  %5 = load ptr, ptr %3, align 8
  %6 = getelementptr inbounds %struct.Vec_Int_t_, ptr %5, i32 0, i32 2
  %7 = load ptr, ptr %6, align 8
  %8 = load i32, ptr %4, align 4
  %9 = sext i32 %8 to i64
  %10 = getelementptr inbounds i32, ptr %7, i64 %9
  %11 = load i32, ptr %10, align 4
  ret i32 %11
}

; Function Attrs: nounwind uwtable
define internal i32 @Vec_IntSize(ptr noundef %0) #0 {
  %2 = alloca ptr, align 8
  store ptr %0, ptr %2, align 8
  %3 = load ptr, ptr %2, align 8
  %4 = getelementptr inbounds %struct.Vec_Int_t_, ptr %3, i32 0, i32 1
  %5 = load i32, ptr %4, align 4
  ret i32 %5
}

; Function Attrs: nounwind uwtable
define internal ptr @Gia_ManCo(ptr noundef %0, i32 noundef %1) #0 {
  %3 = alloca ptr, align 8
  %4 = alloca i32, align 4
  store ptr %0, ptr %3, align 8
  store i32 %1, ptr %4, align 4
  %5 = load ptr, ptr %3, align 8
  %6 = load ptr, ptr %3, align 8
  %7 = getelementptr inbounds %struct.Gia_Man_t_, ptr %6, i32 0, i32 12
  %8 = load ptr, ptr %7, align 8
  %9 = load i32, ptr %4, align 4
  %10 = call i32 @Vec_IntEntry(ptr noundef %8, i32 noundef %9)
  %11 = call ptr @Gia_ManObj(ptr noundef %5, i32 noundef %10)
  ret ptr %11
}

; Function Attrs: nounwind uwtable
define internal i32 @Gia_ManCiNum(ptr noundef %0) #0 {
  %2 = alloca ptr, align 8
  store ptr %0, ptr %2, align 8
  %3 = load ptr, ptr %2, align 8
  %4 = getelementptr inbounds %struct.Gia_Man_t_, ptr %3, i32 0, i32 11
  %5 = load ptr, ptr %4, align 8
  %6 = call i32 @Vec_IntSize(ptr noundef %5)
  ret i32 %6
}

; Function Attrs: nounwind uwtable
define internal i32 @Gia_ManCoNum(ptr noundef %0) #0 {
  %2 = alloca ptr, align 8
  store ptr %0, ptr %2, align 8
  %3 = load ptr, ptr %2, align 8
  %4 = getelementptr inbounds %struct.Gia_Man_t_, ptr %3, i32 0, i32 12
  %5 = load ptr, ptr %4, align 8
  %6 = call i32 @Vec_IntSize(ptr noundef %5)
  ret i32 %6
}

; Function Attrs: nounwind uwtable
define internal i32 @Gia_ManPiNum(ptr noundef %0) #0 {
  %2 = alloca ptr, align 8
  store ptr %0, ptr %2, align 8
  %3 = load ptr, ptr %2, align 8
  %4 = getelementptr inbounds %struct.Gia_Man_t_, ptr %3, i32 0, i32 11
  %5 = load ptr, ptr %4, align 8
  %6 = call i32 @Vec_IntSize(ptr noundef %5)
  %7 = load ptr, ptr %2, align 8
  %8 = getelementptr inbounds %struct.Gia_Man_t_, ptr %7, i32 0, i32 2
  %9 = load i32, ptr %8, align 8
  %10 = sub nsw i32 %6, %9
  ret i32 %10
}

; Function Attrs: nounwind uwtable
define internal i32 @Gia_ObjCioId(ptr noundef %0) #0 {
  %2 = alloca ptr, align 8
  store ptr %0, ptr %2, align 8
  %3 = load ptr, ptr %2, align 8
  %4 = load i64, ptr %3, align 4
  %5 = lshr i64 %4, 32
  %6 = and i64 %5, 536870911
  %7 = trunc i64 %6 to i32
  ret i32 %7
}

; Function Attrs: nounwind uwtable
define internal i32 @Gia_ObjId(ptr noundef %0, ptr noundef %1) #0 {
  %3 = alloca ptr, align 8
  %4 = alloca ptr, align 8
  store ptr %0, ptr %3, align 8
  store ptr %1, ptr %4, align 8
  %5 = load ptr, ptr %4, align 8
  %6 = load ptr, ptr %3, align 8
  %7 = getelementptr inbounds %struct.Gia_Man_t_, ptr %6, i32 0, i32 6
  %8 = load ptr, ptr %7, align 8
  %9 = ptrtoint ptr %5 to i64
  %10 = ptrtoint ptr %8 to i64
  %11 = sub i64 %9, %10
  %12 = sdiv exact i64 %11, 12
  %13 = trunc i64 %12 to i32
  ret i32 %13
}

; Function Attrs: nounwind uwtable
define internal ptr @Gia_ObjFanin1(ptr noundef %0) #0 {
  %2 = alloca ptr, align 8
  store ptr %0, ptr %2, align 8
  %3 = load ptr, ptr %2, align 8
  %4 = load ptr, ptr %2, align 8
  %5 = load i64, ptr %4, align 4
  %6 = lshr i64 %5, 32
  %7 = and i64 %6, 536870911
  %8 = trunc i64 %7 to i32
  %9 = sext i32 %8 to i64
  %10 = sub i64 0, %9
  %11 = getelementptr inbounds %struct.Gia_Obj_t_, ptr %3, i64 %10
  ret ptr %11
}

; Function Attrs: nounwind uwtable
define internal ptr @Gia_ObjRoToRi(ptr noundef %0, ptr noundef %1) #0 {
  %3 = alloca ptr, align 8
  %4 = alloca ptr, align 8
  store ptr %0, ptr %3, align 8
  store ptr %1, ptr %4, align 8
  %5 = load ptr, ptr %3, align 8
  %6 = load ptr, ptr %3, align 8
  %7 = call i32 @Gia_ManCoNum(ptr noundef %6)
  %8 = load ptr, ptr %3, align 8
  %9 = call i32 @Gia_ManCiNum(ptr noundef %8)
  %10 = sub nsw i32 %7, %9
  %11 = load ptr, ptr %4, align 8
  %12 = call i32 @Gia_ObjCioId(ptr noundef %11)
  %13 = add nsw i32 %10, %12
  %14 = call ptr @Gia_ManCo(ptr noundef %5, i32 noundef %13)
  ret ptr %14
}

; Function Attrs: nounwind uwtable
define internal i32 @Gia_ObjIsCi(ptr noundef %0) #0 {
  %2 = alloca ptr, align 8
  store ptr %0, ptr %2, align 8
  %3 = load ptr, ptr %2, align 8
  %4 = load i64, ptr %3, align 4
  %5 = lshr i64 %4, 31
  %6 = and i64 %5, 1
  %7 = trunc i64 %6 to i32
  %8 = icmp ne i32 %7, 0
  br i1 %8, label %9, label %15

9:                                                ; preds = %1
  %10 = load ptr, ptr %2, align 8
  %11 = load i64, ptr %10, align 4
  %12 = and i64 %11, 536870911
  %13 = trunc i64 %12 to i32
  %14 = icmp eq i32 %13, 536870911
  br label %15

15:                                               ; preds = %9, %1
  %16 = phi i1 [ false, %1 ], [ %14, %9 ]
  %17 = zext i1 %16 to i32
  ret i32 %17
}

; Function Attrs: nounwind uwtable
define internal ptr @Gia_ObjFanin0(ptr noundef %0) #0 {
  %2 = alloca ptr, align 8
  store ptr %0, ptr %2, align 8
  %3 = load ptr, ptr %2, align 8
  %4 = load ptr, ptr %2, align 8
  %5 = load i64, ptr %4, align 4
  %6 = and i64 %5, 536870911
  %7 = trunc i64 %6 to i32
  %8 = sext i32 %7 to i64
  %9 = sub i64 0, %8
  %10 = getelementptr inbounds %struct.Gia_Obj_t_, ptr %3, i64 %9
  ret ptr %10
}

; Function Attrs: nounwind uwtable
define internal i32 @Gia_ObjIsCo(ptr noundef %0) #0 {
  %2 = alloca ptr, align 8
  store ptr %0, ptr %2, align 8
  %3 = load ptr, ptr %2, align 8
  %4 = load i64, ptr %3, align 4
  %5 = lshr i64 %4, 31
  %6 = and i64 %5, 1
  %7 = trunc i64 %6 to i32
  %8 = icmp ne i32 %7, 0
  br i1 %8, label %9, label %15

9:                                                ; preds = %1
  %10 = load ptr, ptr %2, align 8
  %11 = load i64, ptr %10, align 4
  %12 = and i64 %11, 536870911
  %13 = trunc i64 %12 to i32
  %14 = icmp ne i32 %13, 536870911
  br label %15

15:                                               ; preds = %9, %1
  %16 = phi i1 [ false, %1 ], [ %14, %9 ]
  %17 = zext i1 %16 to i32
  ret i32 %17
}

; Function Attrs: nounwind uwtable
define internal i32 @Gia_ObjIsConst0(ptr noundef %0) #0 {
  %2 = alloca ptr, align 8
  store ptr %0, ptr %2, align 8
  %3 = load ptr, ptr %2, align 8
  %4 = load i64, ptr %3, align 4
  %5 = and i64 %4, 536870911
  %6 = trunc i64 %5 to i32
  %7 = icmp eq i32 %6, 536870911
  br i1 %7, label %8, label %15

8:                                                ; preds = %1
  %9 = load ptr, ptr %2, align 8
  %10 = load i64, ptr %9, align 4
  %11 = lshr i64 %10, 32
  %12 = and i64 %11, 536870911
  %13 = trunc i64 %12 to i32
  %14 = icmp eq i32 %13, 536870911
  br label %15

15:                                               ; preds = %8, %1
  %16 = phi i1 [ false, %1 ], [ %14, %8 ]
  %17 = zext i1 %16 to i32
  ret i32 %17
}

; Function Attrs: nounwind uwtable
define internal i32 @Gia_ObjIsPi(ptr noundef %0, ptr noundef %1) #0 {
  %3 = alloca ptr, align 8
  %4 = alloca ptr, align 8
  store ptr %0, ptr %3, align 8
  store ptr %1, ptr %4, align 8
  %5 = load ptr, ptr %4, align 8
  %6 = call i32 @Gia_ObjIsCi(ptr noundef %5)
  %7 = icmp ne i32 %6, 0
  br i1 %7, label %8, label %14

8:                                                ; preds = %2
  %9 = load ptr, ptr %4, align 8
  %10 = call i32 @Gia_ObjCioId(ptr noundef %9)
  %11 = load ptr, ptr %3, align 8
  %12 = call i32 @Gia_ManPiNum(ptr noundef %11)
  %13 = icmp slt i32 %10, %12
  br label %14

14:                                               ; preds = %8, %2
  %15 = phi i1 [ false, %2 ], [ %13, %8 ]
  %16 = zext i1 %15 to i32
  ret i32 %16
}

; Function Attrs: nounwind uwtable
define internal void @Gia_ObjSetTravIdCurrent(ptr noundef %0, ptr noundef %1) #0 {
  %3 = alloca ptr, align 8
  %4 = alloca ptr, align 8
  store ptr %0, ptr %3, align 8
  store ptr %1, ptr %4, align 8
  %5 = load ptr, ptr %3, align 8
  %6 = getelementptr inbounds %struct.Gia_Man_t_, ptr %5, i32 0, i32 24
  %7 = load i32, ptr %6, align 8
  %8 = load ptr, ptr %3, align 8
  %9 = getelementptr inbounds %struct.Gia_Man_t_, ptr %8, i32 0, i32 80
  %10 = load ptr, ptr %9, align 8
  %11 = load ptr, ptr %3, align 8
  %12 = load ptr, ptr %4, align 8
  %13 = call i32 @Gia_ObjId(ptr noundef %11, ptr noundef %12)
  %14 = sext i32 %13 to i64
  %15 = getelementptr inbounds i32, ptr %10, i64 %14
  store i32 %7, ptr %15, align 4
  ret void
}

; Function Attrs: nounwind uwtable
define internal i32 @Gia_ObjIsTravIdCurrent(ptr noundef %0, ptr noundef %1) #0 {
  %3 = alloca ptr, align 8
  %4 = alloca ptr, align 8
  store ptr %0, ptr %3, align 8
  store ptr %1, ptr %4, align 8
  %5 = load ptr, ptr %3, align 8
  %6 = getelementptr inbounds %struct.Gia_Man_t_, ptr %5, i32 0, i32 80
  %7 = load ptr, ptr %6, align 8
  %8 = load ptr, ptr %3, align 8
  %9 = load ptr, ptr %4, align 8
  %10 = call i32 @Gia_ObjId(ptr noundef %8, ptr noundef %9)
  %11 = sext i32 %10 to i64
  %12 = getelementptr inbounds i32, ptr %7, i64 %11
  %13 = load i32, ptr %12, align 4
  %14 = load ptr, ptr %3, align 8
  %15 = getelementptr inbounds %struct.Gia_Man_t_, ptr %14, i32 0, i32 24
  %16 = load i32, ptr %15, align 8
  %17 = icmp eq i32 %13, %16
  %18 = zext i1 %17 to i32
  ret i32 %18
}

; Function Attrs: nounwind uwtable
define i32 @Gia_ManMarkAutonomous_rec(ptr noundef %0, ptr noundef %1) #0 {
  %3 = alloca i32, align 4
  %4 = alloca ptr, align 8
  %5 = alloca ptr, align 8
  store ptr %0, ptr %4, align 8
  store ptr %1, ptr %5, align 8
  %6 = load ptr, ptr %4, align 8
  %7 = load ptr, ptr %5, align 8
  %8 = call i32 @Gia_ObjIsTravIdCurrent(ptr noundef %6, ptr noundef %7)
  %9 = icmp ne i32 %8, 0
  br i1 %9, label %10, label %16

10:                                               ; preds = %2
  %11 = load ptr, ptr %5, align 8
  %12 = load i64, ptr %11, align 4
  %13 = lshr i64 %12, 30
  %14 = and i64 %13, 1
  %15 = trunc i64 %14 to i32
  store i32 %15, ptr %3, align 4
  br label %91

16:                                               ; preds = %2
  %17 = load ptr, ptr %4, align 8
  %18 = load ptr, ptr %5, align 8
  call void @Gia_ObjSetTravIdCurrent(ptr noundef %17, ptr noundef %18)
  %19 = load ptr, ptr %4, align 8
  %20 = load ptr, ptr %5, align 8
  %21 = call i32 @Gia_ObjIsPi(ptr noundef %19, ptr noundef %20)
  %22 = icmp ne i32 %21, 0
  br i1 %22, label %27, label %23

23:                                               ; preds = %16
  %24 = load ptr, ptr %5, align 8
  %25 = call i32 @Gia_ObjIsConst0(ptr noundef %24)
  %26 = icmp ne i32 %25, 0
  br i1 %26, label %27, label %32

27:                                               ; preds = %23, %16
  %28 = load ptr, ptr %5, align 8
  %29 = load i64, ptr %28, align 4
  %30 = and i64 %29, -1073741825
  %31 = or i64 %30, 1073741824
  store i64 %31, ptr %28, align 4
  store i32 1, ptr %3, align 4
  br label %91

32:                                               ; preds = %23
  %33 = load ptr, ptr %5, align 8
  %34 = call i32 @Gia_ObjIsCo(ptr noundef %33)
  %35 = icmp ne i32 %34, 0
  br i1 %35, label %36, label %49

36:                                               ; preds = %32
  %37 = load ptr, ptr %4, align 8
  %38 = load ptr, ptr %5, align 8
  %39 = call ptr @Gia_ObjFanin0(ptr noundef %38)
  %40 = call i32 @Gia_ManMarkAutonomous_rec(ptr noundef %37, ptr noundef %39)
  %41 = load ptr, ptr %5, align 8
  %42 = zext i32 %40 to i64
  %43 = load i64, ptr %41, align 4
  %44 = and i64 %42, 1
  %45 = shl i64 %44, 30
  %46 = and i64 %43, -1073741825
  %47 = or i64 %46, %45
  store i64 %47, ptr %41, align 4
  %48 = trunc i64 %44 to i32
  store i32 %48, ptr %3, align 4
  br label %91

49:                                               ; preds = %32
  %50 = load ptr, ptr %5, align 8
  %51 = call i32 @Gia_ObjIsCi(ptr noundef %50)
  %52 = icmp ne i32 %51, 0
  br i1 %52, label %53, label %67

53:                                               ; preds = %49
  %54 = load ptr, ptr %4, align 8
  %55 = load ptr, ptr %4, align 8
  %56 = load ptr, ptr %5, align 8
  %57 = call ptr @Gia_ObjRoToRi(ptr noundef %55, ptr noundef %56)
  %58 = call i32 @Gia_ManMarkAutonomous_rec(ptr noundef %54, ptr noundef %57)
  %59 = load ptr, ptr %5, align 8
  %60 = zext i32 %58 to i64
  %61 = load i64, ptr %59, align 4
  %62 = and i64 %60, 1
  %63 = shl i64 %62, 30
  %64 = and i64 %61, -1073741825
  %65 = or i64 %64, %63
  store i64 %65, ptr %59, align 4
  %66 = trunc i64 %62 to i32
  store i32 %66, ptr %3, align 4
  br label %91

67:                                               ; preds = %49
  %68 = load ptr, ptr %4, align 8
  %69 = load ptr, ptr %5, align 8
  %70 = call ptr @Gia_ObjFanin0(ptr noundef %69)
  %71 = call i32 @Gia_ManMarkAutonomous_rec(ptr noundef %68, ptr noundef %70)
  %72 = icmp ne i32 %71, 0
  br i1 %72, label %73, label %78

73:                                               ; preds = %67
  %74 = load ptr, ptr %5, align 8
  %75 = load i64, ptr %74, align 4
  %76 = and i64 %75, -1073741825
  %77 = or i64 %76, 1073741824
  store i64 %77, ptr %74, align 4
  store i32 1, ptr %3, align 4
  br label %91

78:                                               ; preds = %67
  %79 = load ptr, ptr %4, align 8
  %80 = load ptr, ptr %5, align 8
  %81 = call ptr @Gia_ObjFanin1(ptr noundef %80)
  %82 = call i32 @Gia_ManMarkAutonomous_rec(ptr noundef %79, ptr noundef %81)
  %83 = load ptr, ptr %5, align 8
  %84 = zext i32 %82 to i64
  %85 = load i64, ptr %83, align 4
  %86 = and i64 %84, 1
  %87 = shl i64 %86, 30
  %88 = and i64 %85, -1073741825
  %89 = or i64 %88, %87
  store i64 %89, ptr %83, align 4
  %90 = trunc i64 %86 to i32
  store i32 %90, ptr %3, align 4
  br label %91

91:                                               ; preds = %78, %73, %53, %36, %27, %10
  %92 = load i32, ptr %3, align 4
  ret i32 %92
}