; Function Attrs: nofree nosync nounwind memory(readwrite, inaccessiblemem: none) uwtable
define range(i32 0, 2) i32 @Gia_ManMarkAutonomous_rec(ptr noundef %0, ptr noundef %1) local_unnamed_addr #0 {
  %3 = getelementptr inbounds nuw i8, ptr %0, i64 616
  %4 = load ptr, ptr %3, align 8
  %5 = getelementptr i8, ptr %0, i64 32
  %.val.i = load ptr, ptr %5, align 8
  %6 = ptrtoint ptr %1 to i64
  %7 = ptrtoint ptr %.val.i to i64
  %8 = sub i64 %6, %7
  %9 = sdiv exact i64 %8, 12
  %sext.i = shl i64 %9, 32
  %10 = ashr exact i64 %sext.i, 30
  %11 = getelementptr inbounds i8, ptr %4, i64 %10
  %12 = load i32, ptr %11, align 4
  %13 = getelementptr inbounds nuw i8, ptr %0, i64 176
  %14 = load i32, ptr %13, align 8
  %.not = icmp eq i32 %12, %14
  br i1 %.not, label %15, label %20

15:                                               ; preds = %2
  %16 = load i64, ptr %1, align 4
  %17 = trunc i64 %16 to i32
  %18 = lshr i32 %17, 30
  %19 = and i32 %18, 1
  br label %common.ret46

20:                                               ; preds = %2
  store i32 %14, ptr %11, align 4
  %.val29 = load i64, ptr %1, align 4
  %21 = and i64 %.val29, 2684354559
  %narrow.i.not.i.not = icmp eq i64 %21, 2684354559
  br i1 %narrow.i.not.i.not, label %Gia_ObjIsPi.exit, label %Gia_ObjIsPi.exit.thread

Gia_ObjIsPi.exit:                                 ; preds = %20
  %22 = lshr i64 %.val29, 32
  %23 = trunc nuw i64 %22 to i32
  %24 = and i32 %23, 536870911
  %25 = getelementptr i8, ptr %0, i64 16
  %.val4.i = load i32, ptr %25, align 8
  %26 = getelementptr i8, ptr %0, i64 64
  %.val5.i = load ptr, ptr %26, align 8
  %27 = getelementptr i8, ptr %.val5.i, i64 4
  %.val5.val.i = load i32, ptr %27, align 4
  %28 = sub nsw i32 %.val5.val.i, %.val4.i
  %.not41 = icmp slt i32 %24, %28
  %29 = and i64 %.val29, 2305843005455597567
  %narrow.i.not = icmp eq i64 %29, 2305843005455597567
  %or.cond = or i1 %narrow.i.not, %.not41
  br i1 %or.cond, label %30, label %44

Gia_ObjIsPi.exit.thread:                          ; preds = %20
  %.old = and i64 %.val29, 2305843005455597567
  %narrow.i.not.old = icmp eq i64 %.old, 2305843005455597567
  br i1 %narrow.i.not.old, label %30, label %.thread

30:                                               ; preds = %Gia_ObjIsPi.exit.thread, %Gia_ObjIsPi.exit
  %31 = or i64 %.val29, 1073741824
  store i64 %31, ptr %1, align 4
  br label %common.ret46

.thread:                                          ; preds = %Gia_ObjIsPi.exit.thread
  %32 = and i64 %.val29, 2147483648
  %.not.i43 = icmp eq i64 %32, 0
  %33 = and i64 %.val29, 536870911
  %34 = icmp eq i64 %33, 536870911
  %narrow.i35.not44 = or i1 %.not.i43, %34
  %35 = sub nsw i64 0, %33
  %36 = getelementptr inbounds %struct.Gia_Obj_t_, ptr %1, i64 %35
  %37 = tail call i32 @Gia_ManMarkAutonomous_rec(ptr noundef nonnull %0, ptr noundef nonnull %36)
  br i1 %narrow.i35.not44, label %66, label %38

common.ret46:                                     ; preds = %38, %68, %30, %15, %70, %44
  %common.ret46.op = phi i32 [ %60, %44 ], [ %75, %70 ], [ %37, %38 ], [ %19, %15 ], [ 1, %30 ], [ 1, %68 ]
  ret i32 %common.ret46.op

38:                                               ; preds = %.thread
  %39 = load i64, ptr %1, align 4
  %40 = shl nuw nsw i32 %37, 30
  %41 = zext nneg i32 %40 to i64
  %42 = and i64 %39, -1073741825
  %43 = or disjoint i64 %42, %41
  store i64 %43, ptr %1, align 4
  br label %common.ret46

44:                                               ; preds = %Gia_ObjIsPi.exit
  %45 = getelementptr i8, ptr %0, i64 72
  %.val4.i37 = load ptr, ptr %45, align 8
  %46 = getelementptr i8, ptr %.val4.i37, i64 4
  %.val4.val.i = load i32, ptr %46, align 4
  %47 = getelementptr i8, ptr %0, i64 64
  %.val5.i38 = load ptr, ptr %47, align 8
  %48 = getelementptr i8, ptr %.val5.i38, i64 4
  %.val5.val.i39 = load i32, ptr %48, align 4
  %49 = lshr i64 %.val29, 32
  %50 = trunc nuw i64 %49 to i32
  %51 = and i32 %50, 536870911
  %52 = add i32 %.val4.val.i, %51
  %53 = sub i32 %52, %.val5.val.i39
  %.val6.i = load ptr, ptr %5, align 8
  %54 = getelementptr i8, ptr %.val4.i37, i64 8
  %.val7.val.i = load ptr, ptr %54, align 8
  %55 = sext i32 %53 to i64
  %56 = getelementptr inbounds i32, ptr %.val7.val.i, i64 %55
  %57 = load i32, ptr %56, align 4
  %58 = sext i32 %57 to i64
  %59 = getelementptr inbounds %struct.Gia_Obj_t_, ptr %.val6.i, i64 %58
  %60 = tail call i32 @Gia_ManMarkAutonomous_rec(ptr noundef nonnull %0, ptr noundef %59)
  %61 = load i64, ptr %1, align 4
  %62 = shl nuw nsw i32 %60, 30
  %63 = zext nneg i32 %62 to i64
  %64 = and i64 %61, -1073741825
  %65 = or disjoint i64 %64, %63
  store i64 %65, ptr %1, align 4
  br label %common.ret46

66:                                               ; preds = %.thread
  %.not28 = icmp eq i32 %37, 0
  %67 = load i64, ptr %1, align 4
  br i1 %.not28, label %70, label %68

68:                                               ; preds = %66
  %69 = or i64 %67, 1073741824
  store i64 %69, ptr %1, align 4
  br label %common.ret46

70:                                               ; preds = %66
  %71 = lshr i64 %67, 32
  %72 = and i64 %71, 536870911
  %73 = sub nsw i64 0, %72
  %74 = getelementptr inbounds %struct.Gia_Obj_t_, ptr %1, i64 %73
  %75 = tail call i32 @Gia_ManMarkAutonomous_rec(ptr noundef nonnull %0, ptr noundef nonnull %74)
  %76 = load i64, ptr %1, align 4
  %77 = shl nuw nsw i32 %75, 30
  %78 = zext nneg i32 %77 to i64
  %79 = and i64 %76, -1073741825
  %80 = or disjoint i64 %79, %78
  store i64 %80, ptr %1, align 4
  br label %common.ret46
}